(dp1
S'twisted_reactors'
p2
ccopy_reg
_reconstructor
p3
(ctwisted.plugin
CachedDropin
p4
c__builtin__
object
p5
NtRp6
(dp7
S'moduleName'
p8
S'twisted.plugins.twisted_reactors'
p9
sS'description'
p10
NsS'plugins'
p11
(lp12
g3
(ctwisted.plugin
CachedPlugin
p13
g5
NtRp14
(dp15
S'provided'
p16
(lp17
ctwisted.plugin
IPlugin
p18
actwisted.application.reactors
IReactorInstaller
p19
asS'dropin'
p20
g6
sS'name'
p21
S'kqueue'
p22
sg10
S'\n    @ivar moduleName: The fully-qualified Python name of the module of which\n    the install callable is an attribute.\n    '
p23
sbag3
(g13
g5
NtRp24
(dp25
g16
(lp26
g18
ag19
asg20
g6
sg21
S'win32er'
p27
sg10
g23
sbag3
(g13
g5
NtRp28
(dp29
g16
(lp30
g18
ag19
asg20
g6
sg21
S'epoll'
p31
sg10
g23
sbag3
(g13
g5
NtRp32
(dp33
g16
(lp34
g18
ag19
asg20
g6
sg21
S'iocp'
p35
sg10
g23
sbag3
(g13
g5
NtRp36
(dp37
g16
(lp38
g18
ag19
asg20
g6
sg21
S'gtk'
p39
sg10
g23
sbag3
(g13
g5
NtRp40
(dp41
g16
(lp42
g18
ag19
asg20
g6
sg21
S'cf'
p43
sg10
g23
sbag3
(g13
g5
NtRp44
(dp45
g16
(lp46
g18
ag19
asg20
g6
sg21
S'gtk2'
p47
sg10
g23
sbag3
(g13
g5
NtRp48
(dp49
g16
(lp50
g18
ag19
asg20
g6
sg21
S'default'
p51
sg10
g23
sbag3
(g13
g5
NtRp52
(dp53
g16
(lp54
g18
ag19
asg20
g6
sg21
S'glade'
p55
sg10
g23
sbag3
(g13
g5
NtRp56
(dp57
g16
(lp58
g18
ag19
asg20
g6
sg21
S'poll'
p59
sg10
g23
sbag3
(g13
g5
NtRp60
(dp61
g16
(lp62
g18
ag19
asg20
g6
sg21
S'glib2'
p63
sg10
g23
sbag3
(g13
g5
NtRp64
(dp65
g16
(lp66
g18
ag19
asg20
g6
sg21
S'select'
p67
sg10
g23
sbag3
(g13
g5
NtRp68
(dp69
g16
(lp70
g18
ag19
asg20
g6
sg21
S'wx'
p71
sg10
g23
sbasbsS'cred_memory'
p72
g3
(g4
g5
NtRp73
(dp74
g8
S'twisted.plugins.cred_memory'
p75
sg10
S'\nCred plugin for an in-memory user database.\n'
p76
sg11
(lp77
g3
(g13
g5
NtRp78
(dp79
g16
(lp80
ctwisted.cred.strcred
ICheckerFactory
p81
ag18
asg20
g73
sg21
S'theInMemoryCheckerFactory'
p82
sg10
S"\n    A factory for in-memory credentials checkers.\n\n    This is only of use in one-off test programs or examples which don't\n    want to focus too much on how credentials are verified.\n\n    You really don't want to use this for anything else.  It is, at best, a\n    toy.  If you need a simple credentials checker for a real application,\n    see L{cred_passwd.PasswdCheckerFactory}.\n    "
p83
sbasbsS'twisted_inet'
p84
g3
(g4
g5
NtRp85
(dp86
g8
S'twisted.plugins.twisted_inet'
p87
sg10
Nsg11
(lp88
g3
(g13
g5
NtRp89
(dp90
g16
(lp91
g18
actwisted.application.service
IServiceMaker
p92
asg20
g85
sg21
S'TwistedINETD'
p93
sg10
S'\n    Utility class to simplify the definition of L{IServiceMaker} plugins.\n    '
p94
sbasbsS'cred_file'
p95
g3
(g4
g5
NtRp96
(dp97
g8
S'twisted.plugins.cred_file'
p98
sg10
S"\nCred plugin for a file of the format 'username:password'.\n"
p99
sg11
(lp100
g3
(g13
g5
NtRp101
(dp102
g16
(lp103
g81
ag18
asg20
g96
sg21
S'theFileCheckerFactory'
p104
sg10
S'\n    A factory for instances of L{FilePasswordDB}.\n    '
p105
sbasbsS'twisted_ftp'
p106
g3
(g4
g5
NtRp107
(dp108
g8
S'twisted.plugins.twisted_ftp'
p109
sg10
Nsg11
(lp110
g3
(g13
g5
NtRp111
(dp112
g16
(lp113
g18
ag92
asg20
g107
sg21
S'TwistedFTP'
p114
sg10
g94
sbasbsS'twisted_telnet'
p115
g3
(g4
g5
NtRp116
(dp117
g8
S'twisted.plugins.twisted_telnet'
p118
sg10
Nsg11
(lp119
g3
(g13
g5
NtRp120
(dp121
g16
(lp122
g18
ag92
asg20
g116
sg21
S'TwistedTelnet'
p123
sg10
g94
sbasbsS'twisted_socks'
p124
g3
(g4
g5
NtRp125
(dp126
g8
S'twisted.plugins.twisted_socks'
p127
sg10
Nsg11
(lp128
g3
(g13
g5
NtRp129
(dp130
g16
(lp131
g18
ag92
asg20
g125
sg21
S'TwistedSOCKS'
p132
sg10
g94
sbasbsS'twisted_manhole'
p133
g3
(g4
g5
NtRp134
(dp135
g8
S'twisted.plugins.twisted_manhole'
p136
sg10
Nsg11
(lp137
g3
(g13
g5
NtRp138
(dp139
g16
(lp140
g18
ag92
asg20
g134
sg21
S'TwistedManhole'
p141
sg10
g94
sbasbsS'twisted_qtstub'
p142
g3
(g4
g5
NtRp143
(dp144
g8
S'twisted.plugins.twisted_qtstub'
p145
sg10
S'\nBackwards-compatibility plugin for the Qt reactor.\n\nThis provides a Qt reactor plugin named C{qt} which emits a deprecation\nwarning and a pointer to the separately distributed Qt reactor plugins.\n'
p146
sg11
(lp147
g3
(g13
g5
NtRp148
(dp149
g16
(lp150
g18
ag19
asg20
g143
sg21
S'qt'
p151
sg10
S'\n    Reactor plugin which emits a deprecation warning on the successful\n    installation of its reactor or a pointer to further information if an\n    ImportError occurs while attempting to install it.\n    '
p152
sbasbsS'cred_unix'
p153
g3
(g4
g5
NtRp154
(dp155
g8
S'twisted.plugins.cred_unix'
p156
sg10
S'\nCred plugin for UNIX user accounts.\n'
p157
sg11
(lp158
g3
(g13
g5
NtRp159
(dp160
g16
(lp161
g81
ag18
asg20
g154
sg21
S'theUnixCheckerFactory'
p162
sg10
S'\n    A factory for L{UNIXChecker}.\n    '
p163
sbasbsS'cred_anonymous'
p164
g3
(g4
g5
NtRp165
(dp166
g8
S'twisted.plugins.cred_anonymous'
p167
sg10
S'\nCred plugin for anonymous logins.\n'
p168
sg11
(lp169
g3
(g13
g5
NtRp170
(dp171
g16
(lp172
g81
ag18
asg20
g165
sg21
S'theAnonymousCheckerFactory'
p173
sg10
S'\n    Generates checkers that will authenticate an anonymous request.\n    '
p174
sbasbsS'twisted_trial'
p175
g3
(g4
g5
NtRp176
(dp177
g8
S'twisted.plugins.twisted_trial'
p178
sg10
Nsg11
(lp179
g3
(g13
g5
NtRp180
(dp181
g16
(lp182
g18
actwisted.trial.itrial
IReporter
p183
asg20
g176
sg21
S'Subunit'
p184
sg10
Nsbag3
(g13
g5
NtRp185
(dp186
g16
(lp187
g18
ag183
asg20
g176
sg21
S'BlackAndWhite'
p188
sg10
Nsbag3
(g13
g5
NtRp189
(dp190
g16
(lp191
g18
ag183
asg20
g176
sg21
S'Classic'
p192
sg10
Nsbag3
(g13
g5
NtRp193
(dp194
g16
(lp195
g18
ag183
asg20
g176
sg21
S'Tree'
p196
sg10
Nsbag3
(g13
g5
NtRp197
(dp198
g16
(lp199
g18
ag183
asg20
g176
sg21
S'Timing'
p200
sg10
Nsbag3
(g13
g5
NtRp201
(dp202
g16
(lp203
g18
ag183
asg20
g176
sg21
S'Minimal'
p204
sg10
NsbasbsS'twisted_portforward'
p205
g3
(g4
g5
NtRp206
(dp207
g8
S'twisted.plugins.twisted_portforward'
p208
sg10
Nsg11
(lp209
g3
(g13
g5
NtRp210
(dp211
g16
(lp212
g18
ag92
asg20
g206
sg21
S'TwistedPortForward'
p213
sg10
g94
sbasbs.